target datalayout = "e-m:e-p270:32:32-p271:32:32-p272:64:64-i64:64-i128:128-f80:128-n8:16:32:64-S128"
target triple = "x86_64-pc-linux-gnu"

%"struct.Luau::CodeGen::IrOp" = type { i32 }

; Function Attrs: mustprogress uwtable
define dso_local void @_ZN4Luau7CodeGen21translateInstGetUpvalERNS0_9IrBuilderEPKji(ptr noundef nonnull align 8 dereferenceable(752) %0, ptr noundef %1, i32 noundef %2) #0 {
  %4 = alloca ptr, align 8
  %5 = alloca ptr, align 8
  %6 = alloca i32, align 4
  %7 = alloca i32, align 4
  %8 = alloca i32, align 4
  %9 = alloca %"struct.Luau::CodeGen::IrOp", align 4
  %10 = alloca %"struct.Luau::CodeGen::IrOp", align 4
  %11 = alloca %"struct.Luau::CodeGen::IrOp", align 4
  store ptr %0, ptr %4, align 8, !tbaa !4
  store ptr %1, ptr %5, align 8, !tbaa !9
  store i32 %2, ptr %6, align 4, !tbaa !11
  call void @llvm.lifetime.start.p0(i64 4, ptr %7) #13
  %12 = load ptr, ptr %5, align 8, !tbaa !9
  %13 = load i32, ptr %12, align 4, !tbaa !11
  %14 = lshr i32 %13, 8
  %15 = and i32 %14, 255
  store i32 %15, ptr %7, align 4, !tbaa !11
  call void @llvm.lifetime.start.p0(i64 4, ptr %8) #13
  %16 = load ptr, ptr %5, align 8, !tbaa !9
  %17 = load i32, ptr %16, align 4, !tbaa !11
  %18 = lshr i32 %17, 16
  %19 = and i32 %18, 255
  store i32 %19, ptr %8, align 4, !tbaa !11
  %20 = load ptr, ptr %4, align 8, !tbaa !4
  %21 = load ptr, ptr %4, align 8, !tbaa !4
  %22 = load i32, ptr %7, align 4, !tbaa !11
  %23 = trunc i32 %22 to i8
  %24 = call i32 @_ZN4Luau7CodeGen9IrBuilder5vmRegEh(ptr noundef nonnull align 8 dereferenceable(752) %21, i8 noundef zeroext %23)
  %25 = getelementptr inbounds nuw %"struct.Luau::CodeGen::IrOp", ptr %9, i32 0, i32 0
  store i32 %24, ptr %25, align 4
  %26 = load ptr, ptr %4, align 8, !tbaa !4
  %27 = load i32, ptr %8, align 4, !tbaa !11
  %28 = trunc i32 %27 to i8
  %29 = call i32 @_ZN4Luau7CodeGen9IrBuilder9vmUpvalueEh(ptr noundef nonnull align 8 dereferenceable(752) %26, i8 noundef zeroext %28)
  %30 = getelementptr inbounds nuw %"struct.Luau::CodeGen::IrOp", ptr %10, i32 0, i32 0
  store i32 %29, ptr %30, align 4
  %31 = getelementptr inbounds nuw %"struct.Luau::CodeGen::IrOp", ptr %9, i32 0, i32 0
  %32 = load i32, ptr %31, align 4
  %33 = getelementptr inbounds nuw %"struct.Luau::CodeGen::IrOp", ptr %10, i32 0, i32 0
  %34 = load i32, ptr %33, align 4
  %35 = call i32 @_ZN4Luau7CodeGen9IrBuilder4instENS0_5IrCmdENS0_4IrOpES3_(ptr noundef nonnull align 8 dereferenceable(752) %20, i8 noundef zeroext 80, i32 %32, i32 %34)
  %36 = getelementptr inbounds nuw %"struct.Luau::CodeGen::IrOp", ptr %11, i32 0, i32 0
  store i32 %35, ptr %36, align 4
  call void @llvm.lifetime.end.p0(i64 4, ptr %8) #13
  call void @llvm.lifetime.end.p0(i64 4, ptr %7) #13
  ret void
}