; Function Attrs: mustprogress uwtable
define dso_local void @_ZN4Luau7CodeGen21translateInstGetUpvalERNS0_9IrBuilderEPKji(ptr noundef nonnull align 8 dereferenceable(752) %0, ptr noundef readonly captures(none) %1, i32 noundef %2) local_unnamed_addr #0 {
  %4 = load i32, ptr %1, align 4, !tbaa !4
  %5 = lshr i32 %4, 8
  %6 = lshr i32 %4, 16
  %7 = trunc i32 %5 to i8
  %8 = tail call i32 @_ZN4Luau7CodeGen9IrBuilder5vmRegEh(ptr noundef nonnull align 8 dereferenceable(752) %0, i8 noundef zeroext %7)
  %9 = trunc i32 %6 to i8
  %10 = tail call i32 @_ZN4Luau7CodeGen9IrBuilder9vmUpvalueEh(ptr noundef nonnull align 8 dereferenceable(752) %0, i8 noundef zeroext %9)
  %11 = tail call i32 @_ZN4Luau7CodeGen9IrBuilder4instENS0_5IrCmdENS0_4IrOpES3_(ptr noundef nonnull align 8 dereferenceable(752) %0, i8 noundef zeroext 80, i32 %8, i32 %10)
  ret void
}